Certificate:
    Data:
        Version: 3 (0x2)
        Serial Number: 1 (0x1)
    Signature Algorithm: sha256WithRSAEncryption
        Issuer: C=BJ, ST=BJ, O=taoyuanx, OU=taoyuanx, CN=taoyuanx/emailAddress=dushitaoyuan@gmail.com
        Validity
            Not Before: Feb  1 06:35:29 2021 GMT
            Not After : Feb  1 06:35:29 2022 GMT
        Subject: C=BJ, ST=BJ, O=taoyuanx, OU=taoyuanx, CN=taoyuanx/emailAddress=dushitaoyuan@gmail.com
        Subject Public Key Info:
            Public Key Algorithm: rsaEncryption
                Public-Key: (2048 bit)
                Modulus:
                    00:95:2a:94:19:9c:b5:ac:82:57:b5:61:32:99:cb:
                    e5:92:cd:21:14:d5:b4:c8:d0:d1:e3:28:86:16:bd:
                    91:56:ff:5b:62:78:a3:90:a3:06:03:08:8c:a5:49:
                    57:c1:ca:d0:4e:bc:cd:b9:d8:5b:cb:1a:6e:a0:8f:
                    b2:5c:38:47:f1:79:c5:85:45:af:88:cc:df:35:6c:
                    a4:6e:a8:dc:72:8f:61:6a:69:13:88:8e:bb:26:af:
                    a7:a8:6f:1d:41:4c:30:06:ae:3a:08:38:29:64:60:
                    52:64:f0:58:36:3c:a5:4f:78:06:9b:5b:92:bd:ff:
                    bd:04:36:d1:a3:47:42:93:86:05:78:29:d6:2c:a3:
                    a9:f6:78:fc:a5:f5:6b:c2:f0:ee:2a:4c:7d:52:b6:
                    69:0f:28:dd:a1:c0:4b:0b:07:78:c6:c6:a9:fa:b0:
                    51:f2:7d:7e:18:dd:cf:c7:e1:15:1b:db:b8:0f:57:
                    d7:7c:0e:1d:6d:1d:1c:62:36:6a:2f:95:ad:40:71:
                    a3:8d:93:a2:0b:fc:26:76:d7:12:44:e2:cd:9e:a7:
                    d5:f4:26:82:2a:f9:7e:ca:8e:1b:1e:15:82:d7:d3:
                    eb:06:8b:af:e7:82:fe:80:f0:56:82:20:b7:b6:74:
                    18:3b:bf:78:84:f9:b0:e7:78:92:37:6b:3b:fe:35:
                    6c:e9
                Exponent: 65537 (0x10001)
        X509v3 extensions:
            X509v3 Basic Constraints: 
                CA:FALSE
            Netscape Comment: 
                OpenSSL Generated Certificate
            X509v3 Subject Key Identifier: 
                40:91:98:1B:78:57:17:33:A9:87:B6:F5:E6:33:92:8C:21:F5:57:EC
            X509v3 Authority Key Identifier: 
                keyid:40:91:98:1B:78:57:17:33:A9:87:B6:F5:E6:33:92:8C:21:F5:57:EC

    Signature Algorithm: sha256WithRSAEncryption
         64:a1:b9:f4:6c:ec:89:0d:4f:7e:78:b4:a2:29:90:86:5b:6b:
         58:6e:60:c9:96:bb:12:2f:91:2d:ba:07:2d:e1:17:23:b6:a3:
         45:b0:22:bb:b5:9f:2f:db:31:ab:21:91:a5:7f:00:c3:87:a0:
         ea:e9:31:42:47:02:09:c2:94:41:9d:2b:a0:ae:d5:c0:5f:ea:
         27:09:b6:5e:70:88:86:e0:b4:5c:7c:80:88:9a:9e:98:aa:a3:
         a0:ab:65:8b:3f:83:22:85:58:b2:1d:f1:68:a8:a5:53:2d:ad:
         9e:66:7c:b8:d3:01:0d:0d:68:a9:6d:1a:90:0d:4f:05:92:6d:
         10:f3:d4:32:1b:73:58:a1:48:c5:58:20:91:14:ac:78:79:32:
         02:2d:b0:28:49:ef:75:75:48:7d:5a:07:01:06:25:92:e4:8d:
         41:41:4c:7b:26:d5:e2:d1:fe:23:a4:b4:19:13:b5:35:57:df:
         36:0a:69:de:b1:8c:a3:56:7e:a1:11:ce:1a:23:0c:bb:50:55:
         d6:4e:20:b0:33:80:30:71:94:12:10:6b:b7:be:5c:46:fc:ee:
         4e:bf:30:dc:30:2d:41:26:d2:21:4f:59:96:60:56:89:29:bc:
         97:24:ca:e7:dd:b7:1e:f0:89:e9:b0:02:6e:bc:b3:3a:e4:ff:
         63:6a:32:28
-----BEGIN CERTIFICATE-----
MIID6jCCAtKgAwIBAgIBATANBgkqhkiG9w0BAQsFADB6MQswCQYDVQQGEwJCSjEL
MAkGA1UECAwCQkoxETAPBgNVBAoMCHRhb3l1YW54MREwDwYDVQQLDAh0YW95dWFu
eDERMA8GA1UEAwwIdGFveXVhbngxJTAjBgkqhkiG9w0BCQEWFmR1c2hpdGFveXVh
bkBnbWFpbC5jb20wHhcNMjEwMjAxMDYzNTI5WhcNMjIwMjAxMDYzNTI5WjB6MQsw
CQYDVQQGEwJCSjELMAkGA1UECAwCQkoxETAPBgNVBAoMCHRhb3l1YW54MREwDwYD
VQQLDAh0YW95dWFueDERMA8GA1UEAwwIdGFveXVhbngxJTAjBgkqhkiG9w0BCQEW
FmR1c2hpdGFveXVhbkBnbWFpbC5jb20wggEiMA0GCSqGSIb3DQEBAQUAA4IBDwAw
ggEKAoIBAQCVKpQZnLWsgle1YTKZy+WSzSEU1bTI0NHjKIYWvZFW/1tieKOQowYD
CIylSVfBytBOvM252FvLGm6gj7JcOEfxecWFRa+IzN81bKRuqNxyj2FqaROIjrsm
r6eobx1BTDAGrjoIOClkYFJk8Fg2PKVPeAabW5K9/70ENtGjR0KThgV4KdYso6n2
ePyl9WvC8O4qTH1StmkPKN2hwEsLB3jGxqn6sFHyfX4Y3c/H4RUb27gPV9d8Dh1t
HRxiNmovla1AcaONk6IL/CZ21xJE4s2ep9X0JoIq+X7KjhseFYLX0+sGi6/ngv6A
8FaCILe2dBg7v3iE+bDneJI3azv+NWzpAgMBAAGjezB5MAkGA1UdEwQCMAAwLAYJ
YIZIAYb4QgENBB8WHU9wZW5TU0wgR2VuZXJhdGVkIENlcnRpZmljYXRlMB0GA1Ud
DgQWBBRAkZgbeFcXM6mHtvXmM5KMIfVX7DAfBgNVHSMEGDAWgBRAkZgbeFcXM6mH
tvXmM5KMIfVX7DANBgkqhkiG9w0BAQsFAAOCAQEAZKG59GzsiQ1Pfni0oimQhltr
WG5gyZa7Ei+RLboHLeEXI7ajRbAiu7WfL9sxqyGRpX8Aw4eg6ukxQkcCCcKUQZ0r
oK7VwF/qJwm2XnCIhuC0XHyAiJqemKqjoKtliz+DIoVYsh3xaKilUy2tnmZ8uNMB
DQ1oqW0akA1PBZJtEPPUMhtzWKFIxVggkRSseHkyAi2wKEnvdXVIfVoHAQYlkuSN
QUFMeybV4tH+I6S0GRO1NVffNgpp3rGMo1Z+oRHOGiMMu1BV1k4gsDOAMHGUEhBr
t75cRvzuTr8w3DAtQSbSIU9ZlmBWiSm8lyTK5923HvCJ6bACbryzOuT/Y2oyKA==
-----END CERTIFICATE-----
